target datalayout = "e-m:e-p270:32:32-p271:32:32-p272:64:64-i64:64-i128:128-f80:128-n8:16:32:64-S128"
target triple = "x86_64-pc-linux-gnu"

@.str.3 = private unnamed_addr constant [6 x i8] c"guc.c\00", align 1
@GUCMemoryContext = internal global ptr null, align 8
@.str.14 = private unnamed_addr constant [14 x i8] c"out of memory\00", align 1
@__func__.guc_malloc = private unnamed_addr constant [11 x i8] c"guc_malloc\00", align 1

; Function Attrs: nounwind uwtable
define dso_local ptr @guc_malloc(i32 noundef %0, i64 noundef %1) #0 {
  %3 = alloca i32, align 4
  %4 = alloca i64, align 8
  %5 = alloca ptr, align 8
  store i32 %0, ptr %3, align 4
  store i64 %1, ptr %4, align 8
  call void @llvm.lifetime.start.p0(i64 8, ptr %5) #16
  %6 = load ptr, ptr @GUCMemoryContext, align 8
  %7 = load i64, ptr %4, align 8
  %8 = call ptr @MemoryContextAllocExtended(ptr noundef %6, i64 noundef %7, i32 noundef 2)
  store ptr %8, ptr %5, align 8
  %9 = load ptr, ptr %5, align 8
  %10 = icmp eq ptr %9, null
  %11 = zext i1 %10 to i32
  %12 = icmp ne i32 %11, 0
  %13 = zext i1 %12 to i32
  %14 = sext i32 %13 to i64
  %15 = call i64 @llvm.expect.i64(i64 %14, i64 0)
  %16 = icmp ne i64 %15, 0
  br i1 %16, label %17, label %43

17:                                               ; preds = %2
  br label %18

18:                                               ; preds = %17
  %19 = load i32, ptr %3, align 4
  %20 = call i1 @llvm.is.constant.i32(i32 %19)
  br i1 %20, label %21, label %27

21:                                               ; preds = %18
  %22 = load i32, ptr %3, align 4
  %23 = icmp sge i32 %22, 21
  br i1 %23, label %24, label %27

24:                                               ; preds = %21
  %25 = load i32, ptr %3, align 4
  %26 = call zeroext i1 @errstart_cold(i32 noundef %25, ptr noundef null) #18
  br i1 %26, label %30, label %33

27:                                               ; preds = %21, %18
  %28 = load i32, ptr %3, align 4
  %29 = call zeroext i1 @errstart(i32 noundef %28, ptr noundef null)
  br i1 %29, label %30, label %33

30:                                               ; preds = %27, %24
  %31 = call i32 @errcode(i32 noundef 8389)
  %32 = call i32 (ptr, ...) @errmsg(ptr noundef @.str.14)
  call void @errfinish(ptr noundef @.str.3, i32 noundef 647, ptr noundef @__func__.guc_malloc)
  br label %33

33:                                               ; preds = %30, %27, %24
  %34 = load i32, ptr %3, align 4
  %35 = call i1 @llvm.is.constant.i32(i32 %34)
  br i1 %35, label %36, label %40

36:                                               ; preds = %33
  %37 = load i32, ptr %3, align 4
  %38 = icmp sge i32 %37, 21
  br i1 %38, label %39, label %40

39:                                               ; preds = %36
  unreachable

40:                                               ; preds = %36, %33
  br label %41

41:                                               ; preds = %40
  br label %42

42:                                               ; preds = %41
  br label %43

43:                                               ; preds = %42, %2
  %44 = load ptr, ptr %5, align 8
  call void @llvm.lifetime.end.p0(i64 8, ptr %5) #16
  ret ptr %44
}