; Function Attrs: nounwind uwtable
define dso_local ptr @guc_malloc(i32 noundef %0, i64 noundef %1) local_unnamed_addr #0 {
  %3 = load ptr, ptr @GUCMemoryContext, align 8
  %4 = tail call ptr @MemoryContextAllocExtended(ptr noundef %3, i64 noundef %1, i32 noundef 2) #29
  %5 = icmp eq ptr %4, null
  br i1 %5, label %6, label %11, !prof !16

6:                                                ; preds = %2
  %7 = tail call zeroext i1 @errstart(i32 noundef %0, ptr noundef null) #29
  br i1 %7, label %8, label %11

8:                                                ; preds = %6
  %9 = tail call i32 @errcode(i32 noundef 8389) #29
  %10 = tail call i32 (ptr, ...) @errmsg(ptr noundef nonnull @.str.14) #29
  tail call void @errfinish(ptr noundef nonnull @.str.3, i32 noundef 647, ptr noundef nonnull @__func__.guc_malloc) #29
  br label %11

11:                                               ; preds = %6, %8, %2
  ret ptr %4
}